target datalayout = "e-m:e-p270:32:32-p271:32:32-p272:64:64-i64:64-i128:128-f80:128-n8:16:32:64-S128"
target triple = "x86_64-pc-linux-gnu"

%class.insn_t = type { i64 }
%struct.state_t = type <{ i64, %class.regfile_t, %class.regfile_t.8, %"class.std::unordered_map.9", i64, i64, i8, i8, i8, i8, [4 x i8], %"class.std::shared_ptr", %"class.std::shared_ptr.29", %"class.std::shared_ptr.32", %"class.std::shared_ptr.32", %"class.std::shared_ptr.32", %"class.std::shared_ptr.32", %"class.std::shared_ptr.32", %"class.std::shared_ptr.35", %"class.std::shared_ptr.35", %"class.std::shared_ptr.38", %"class.std::shared_ptr.41", %"class.std::shared_ptr.32", %"class.std::shared_ptr.32", %"class.std::shared_ptr.32", %"class.std::shared_ptr.32", [29 x %"class.std::shared_ptr.32"], %"class.std::shared_ptr.32", %"class.std::shared_ptr.32", %"class.std::shared_ptr.32", %"class.std::shared_ptr.32", %"class.std::shared_ptr.32", %"class.std::shared_ptr.32", %"class.std::shared_ptr.44", %"class.std::shared_ptr.32", %"class.std::shared_ptr.32", %"class.std::shared_ptr.32", %"class.std::shared_ptr.32", %"class.std::shared_ptr.32", %"class.std::shared_ptr.47", %"class.std::shared_ptr.32", %"class.std::shared_ptr.32", %"class.std::shared_ptr.32", %"class.std::shared_ptr.32", %"class.std::shared_ptr.32", %"class.std::shared_ptr.32", %"class.std::shared_ptr.32", %"class.std::shared_ptr.32", %"class.std::shared_ptr.32", %"class.std::shared_ptr.50", %"class.std::shared_ptr.53", %"class.std::shared_ptr.56", %"class.std::shared_ptr.32", %"class.std::shared_ptr.32", %"class.std::shared_ptr.32", %"class.std::shared_ptr.32", %"class.std::shared_ptr.32", %"class.std::shared_ptr.32", %"class.std::shared_ptr.59", %"class.std::shared_ptr.32", %"class.std::shared_ptr.32", %"class.std::shared_ptr.32", %"class.std::shared_ptr.32", %"class.std::shared_ptr.32", %"class.std::shared_ptr.32", i8, [7 x i8], %"class.std::shared_ptr.62", [64 x %"class.std::shared_ptr.65"], %"class.std::shared_ptr.68", %"class.std::shared_ptr.68", %"class.std::shared_ptr.32", %"class.std::shared_ptr.32", %"class.std::shared_ptr.32", [4 x %"class.std::shared_ptr.32"], [4 x %"class.std::shared_ptr.32"], [4 x %"class.std::shared_ptr.32"], %"class.std::shared_ptr.32", %"class.std::shared_ptr.71", %"class.std::shared_ptr.32", %"class.std::shared_ptr.32", %"class.std::shared_ptr.32", %"class.std::shared_ptr.32", i8, [3 x i8], i32, %"class.std::map", %"class.std::vector", %"class.std::vector", i64, i32, i32, i32, i8, [3 x i8] }>
%class.regfile_t = type { [32 x i64] }
%class.regfile_t.8 = type { [32 x %struct.float128_t] }
%struct.float128_t = type { [2 x i64] }
%"class.std::unordered_map.9" = type { %"class.std::_Hashtable.10" }
%"class.std::_Hashtable.10" = type { ptr, i64, %"struct.std::__detail::_Hash_node_base", i64, %"struct.std::__detail::_Prime_rehash_policy", ptr }
%"struct.std::__detail::_Hash_node_base" = type { ptr }
%"struct.std::__detail::_Prime_rehash_policy" = type { float, i64 }
%"class.std::shared_ptr" = type { %"class.std::__shared_ptr" }
%"class.std::__shared_ptr" = type { ptr, %"class.std::__shared_count" }
%"class.std::__shared_count" = type { ptr }
%"class.std::shared_ptr.29" = type { %"class.std::__shared_ptr.30" }
%"class.std::__shared_ptr.30" = type { ptr, %"class.std::__shared_count" }
%"class.std::shared_ptr.35" = type { %"class.std::__shared_ptr.36" }
%"class.std::__shared_ptr.36" = type { ptr, %"class.std::__shared_count" }
%"class.std::shared_ptr.38" = type { %"class.std::__shared_ptr.39" }
%"class.std::__shared_ptr.39" = type { ptr, %"class.std::__shared_count" }
%"class.std::shared_ptr.41" = type { %"class.std::__shared_ptr.42" }
%"class.std::__shared_ptr.42" = type { ptr, %"class.std::__shared_count" }
%"class.std::shared_ptr.44" = type { %"class.std::__shared_ptr.45" }
%"class.std::__shared_ptr.45" = type { ptr, %"class.std::__shared_count" }
%"class.std::shared_ptr.47" = type { %"class.std::__shared_ptr.48" }
%"class.std::__shared_ptr.48" = type { ptr, %"class.std::__shared_count" }
%"class.std::shared_ptr.50" = type { %"class.std::__shared_ptr.51" }
%"class.std::__shared_ptr.51" = type { ptr, %"class.std::__shared_count" }
%"class.std::shared_ptr.53" = type { %"class.std::__shared_ptr.54" }
%"class.std::__shared_ptr.54" = type { ptr, %"class.std::__shared_count" }
%"class.std::shared_ptr.56" = type { %"class.std::__shared_ptr.57" }
%"class.std::__shared_ptr.57" = type { ptr, %"class.std::__shared_count" }
%"class.std::shared_ptr.59" = type { %"class.std::__shared_ptr.60" }
%"class.std::__shared_ptr.60" = type { ptr, %"class.std::__shared_count" }
%"class.std::shared_ptr.62" = type { %"class.std::__shared_ptr.63" }
%"class.std::__shared_ptr.63" = type { ptr, %"class.std::__shared_count" }
%"class.std::shared_ptr.65" = type { %"class.std::__shared_ptr.66" }
%"class.std::__shared_ptr.66" = type { ptr, %"class.std::__shared_count" }
%"class.std::shared_ptr.68" = type { %"class.std::__shared_ptr.69" }
%"class.std::__shared_ptr.69" = type { ptr, %"class.std::__shared_count" }
%"class.std::shared_ptr.71" = type { %"class.std::__shared_ptr.72" }
%"class.std::__shared_ptr.72" = type { ptr, %"class.std::__shared_count" }
%"class.std::shared_ptr.32" = type { %"class.std::__shared_ptr.33" }
%"class.std::__shared_ptr.33" = type { ptr, %"class.std::__shared_count" }
%"class.std::map" = type { %"class.std::_Rb_tree.74" }
%"class.std::_Rb_tree.74" = type { %"struct.std::_Rb_tree<unsigned long, std::pair<const unsigned long, float128_t>, std::_Select1st<std::pair<const unsigned long, float128_t>>, std::less<unsigned long>>::_Rb_tree_impl" }
%"struct.std::_Rb_tree<unsigned long, std::pair<const unsigned long, float128_t>, std::_Select1st<std::pair<const unsigned long, float128_t>>, std::less<unsigned long>>::_Rb_tree_impl" = type { [8 x i8], %"struct.std::_Rb_tree_header" }
%"struct.std::_Rb_tree_header" = type { %"struct.std::_Rb_tree_node_base", i64 }
%"struct.std::_Rb_tree_node_base" = type { i32, ptr, ptr, ptr }
%"class.std::vector" = type { %"struct.std::_Vector_base" }
%"struct.std::_Vector_base" = type { %"struct.std::_Vector_base<std::tuple<unsigned long, unsigned long, unsigned char>, std::allocator<std::tuple<unsigned long, unsigned long, unsigned char>>>::_Vector_impl" }
%"struct.std::_Vector_base<std::tuple<unsigned long, unsigned long, unsigned char>, std::allocator<std::tuple<unsigned long, unsigned long, unsigned char>>>::_Vector_impl" = type { %"struct.std::_Vector_base<std::tuple<unsigned long, unsigned long, unsigned char>, std::allocator<std::tuple<unsigned long, unsigned long, unsigned char>>>::_Vector_impl_data" }
%"struct.std::_Vector_base<std::tuple<unsigned long, unsigned long, unsigned char>, std::allocator<std::tuple<unsigned long, unsigned long, unsigned char>>>::_Vector_impl_data" = type { ptr, ptr, ptr }
%class.processor_t = type { %class.abstract_device_t, i8, i32, %class.isa_parser_t, ptr, ptr, ptr, %"class.std::unordered_map", ptr, %struct.state_t, i32, i32, i8, i8, ptr, %"class.std::basic_ostream", i8, i8, i8, %"class.std::vector.82", %"class.std::bitset", %"class.std::bitset", %"class.std::bitset", %"class.std::vector.86", %"class.std::vector.86", %"class.std::unordered_map.91", [4095 x %class.opcode_cache_entry_t], i64, i64, i64, %class.entropy_source, i64, i64, %class.vectorUnit_t, %"class.triggers::module_t" }
%class.abstract_device_t = type { ptr }
%class.isa_parser_t = type { i32, i64, i64, i64, i8, i8, %"class.std::bitset", %"class.std::__cxx11::basic_string", %"class.std::set" }
%"class.std::__cxx11::basic_string" = type { %"struct.std::__cxx11::basic_string<char>::_Alloc_hider", i64, %union.anon }
%"struct.std::__cxx11::basic_string<char>::_Alloc_hider" = type { ptr }
%union.anon = type { i64, [8 x i8] }
%"class.std::set" = type { %"class.std::_Rb_tree" }
%"class.std::_Rb_tree" = type { %"struct.std::_Rb_tree<std::__cxx11::basic_string<char>, std::__cxx11::basic_string<char>, std::_Identity<std::__cxx11::basic_string<char>>, std::less<std::__cxx11::basic_string<char>>>::_Rb_tree_impl" }
%"struct.std::_Rb_tree<std::__cxx11::basic_string<char>, std::__cxx11::basic_string<char>, std::_Identity<std::__cxx11::basic_string<char>>, std::less<std::__cxx11::basic_string<char>>>::_Rb_tree_impl" = type { [8 x i8], %"struct.std::_Rb_tree_header" }
%"class.std::unordered_map" = type { %"class.std::_Hashtable" }
%"class.std::_Hashtable" = type { ptr, i64, %"struct.std::__detail::_Hash_node_base", i64, %"struct.std::__detail::_Prime_rehash_policy", ptr }
%"class.std::basic_ostream" = type { ptr, %"class.std::basic_ios" }
%"class.std::basic_ios" = type { %"class.std::ios_base", ptr, i8, i8, ptr, ptr, ptr, ptr }
%"class.std::ios_base" = type { ptr, i64, i64, i32, i32, i32, ptr, %"struct.std::ios_base::_Words", [8 x %"struct.std::ios_base::_Words"], i32, ptr, %"class.std::locale" }
%"struct.std::ios_base::_Words" = type { ptr, i64 }
%"class.std::locale" = type { ptr }
%"class.std::vector.82" = type { %"struct.std::_Bvector_base" }
%"struct.std::_Bvector_base" = type { %"struct.std::_Bvector_base<std::allocator<bool>>::_Bvector_impl" }
%"struct.std::_Bvector_base<std::allocator<bool>>::_Bvector_impl" = type { %"struct.std::_Bvector_base<std::allocator<bool>>::_Bvector_impl_data" }
%"struct.std::_Bvector_base<std::allocator<bool>>::_Bvector_impl_data" = type { %"struct.std::_Bit_iterator", %"struct.std::_Bit_iterator", ptr }
%"struct.std::_Bit_iterator" = type { %"struct.std::_Bit_iterator_base.base", [4 x i8] }
%"struct.std::_Bit_iterator_base.base" = type <{ ptr, i32 }>
%"class.std::bitset" = type { %"struct.std::_Base_bitset" }
%"struct.std::_Base_bitset" = type { [3 x i64] }
%"class.std::vector.86" = type { %"struct.std::_Vector_base.87" }
%"struct.std::_Vector_base.87" = type { %"struct.std::_Vector_base<insn_desc_t, std::allocator<insn_desc_t>>::_Vector_impl" }
%"struct.std::_Vector_base<insn_desc_t, std::allocator<insn_desc_t>>::_Vector_impl" = type { %"struct.std::_Vector_base<insn_desc_t, std::allocator<insn_desc_t>>::_Vector_impl_data" }
%"struct.std::_Vector_base<insn_desc_t, std::allocator<insn_desc_t>>::_Vector_impl_data" = type { ptr, ptr, ptr }
%"class.std::unordered_map.91" = type { %"class.std::_Hashtable.92" }
%"class.std::_Hashtable.92" = type { ptr, i64, %"struct.std::__detail::_Hash_node_base", i64, %"struct.std::__detail::_Prime_rehash_policy", ptr }
%class.opcode_cache_entry_t = type { [4 x i64], [4 x ptr] }
%class.entropy_source = type { %"class.std::__cxx11::basic_string" }
%class.vectorUnit_t = type <{ ptr, ptr, [32 x i8], i32, [4 x i8], i64, i64, %"class.std::shared_ptr.32", %"class.std::shared_ptr.105", %"class.std::shared_ptr.105", %"class.std::shared_ptr.105", %"class.std::shared_ptr.105", i64, i64, i64, float, [4 x i8], i64, i64, i8, i8, [6 x i8] }>
%"class.std::shared_ptr.105" = type { %"class.std::__shared_ptr.106" }
%"class.std::__shared_ptr.106" = type { ptr, %"class.std::__shared_count" }
%"class.triggers::module_t" = type { ptr, %"class.std::vector.108" }
%"class.std::vector.108" = type { %"struct.std::_Vector_base.109" }
%"struct.std::_Vector_base.109" = type { %"struct.std::_Vector_base<triggers::trigger_t *, std::allocator<triggers::trigger_t *>>::_Vector_impl" }
%"struct.std::_Vector_base<triggers::trigger_t *, std::allocator<triggers::trigger_t *>>::_Vector_impl" = type { %"struct.std::_Vector_base<triggers::trigger_t *, std::allocator<triggers::trigger_t *>>::_Vector_impl_data" }
%"struct.std::_Vector_base<triggers::trigger_t *, std::allocator<triggers::trigger_t *>>::_Vector_impl_data" = type { ptr, ptr, ptr }

; Function Attrs: mustprogress nounwind uwtable
define linkonce_odr noundef i64 @_ZN6insn_t1xEii(ptr noundef nonnull align 8 dereferenceable(8) %0, i32 noundef %1, i32 noundef %2) #6 comdat align 2 {
  %4 = alloca ptr, align 8
  %5 = alloca i32, align 4
  %6 = alloca i32, align 4
  store ptr %0, ptr %4, align 8, !tbaa !13
  store i32 %1, ptr %5, align 4, !tbaa !32
  store i32 %2, ptr %6, align 4, !tbaa !32
  %7 = load ptr, ptr %4, align 8
  %8 = getelementptr inbounds nuw %class.insn_t, ptr %7, i32 0, i32 0
  %9 = load i64, ptr %8, align 8, !tbaa !24
  %10 = load i32, ptr %5, align 4, !tbaa !32
  %11 = zext i32 %10 to i64
  %12 = lshr i64 %9, %11
  %13 = load i32, ptr %6, align 4, !tbaa !32
  %14 = zext i32 %13 to i64
  %15 = shl i64 1, %14
  %16 = sub i64 %15, 1
  %17 = and i64 %12, %16
  ret i64 %17
}

; Function Attrs: inlinehint mustprogress nounwind uwtable
define internal void @_ZL12trace_opcodeP11processor_tm6insn_t(ptr noundef %0, i64 noundef %1, i64 %2) #7 {
  %4 = alloca %class.insn_t, align 8
  %5 = alloca ptr, align 8
  %6 = alloca i64, align 8
  %7 = getelementptr inbounds nuw %class.insn_t, ptr %4, i32 0, i32 0
  store i64 %2, ptr %7, align 8
  store ptr %0, ptr %5, align 8, !tbaa !3
  store i64 %1, ptr %6, align 8, !tbaa !8
  ret void
}

; Function Attrs: mustprogress nounwind uwtable
define linkonce_odr void @_ZN9regfile_tImLm32ELb1EE5writeEmm(ptr noundef nonnull align 8 dereferenceable(256) %0, i64 noundef %1, i64 noundef %2) #6 comdat align 2 {
  %4 = alloca ptr, align 8
  %5 = alloca i64, align 8
  %6 = alloca i64, align 8
  store ptr %0, ptr %4, align 8, !tbaa !11
  store i64 %1, ptr %5, align 8, !tbaa !8
  store i64 %2, ptr %6, align 8, !tbaa !8
  %7 = load ptr, ptr %4, align 8
  %8 = load i64, ptr %5, align 8, !tbaa !8
  %9 = icmp ne i64 %8, 0
  br i1 %9, label %10, label %15

10:                                               ; preds = %3
  %11 = load i64, ptr %6, align 8, !tbaa !8
  %12 = getelementptr inbounds nuw %class.regfile_t, ptr %7, i32 0, i32 0
  %13 = load i64, ptr %5, align 8, !tbaa !8
  %14 = getelementptr inbounds nuw [32 x i64], ptr %12, i64 0, i64 %13
  store i64 %11, ptr %14, align 8, !tbaa !8
  br label %15

15:                                               ; preds = %10, %3
  ret void
}

; Function Attrs: mustprogress nounwind uwtable
define linkonce_odr noundef i64 @_ZN6insn_t2rdEv(ptr noundef nonnull align 8 dereferenceable(8) %0) #6 comdat align 2 {
  %2 = alloca ptr, align 8
  store ptr %0, ptr %2, align 8, !tbaa !13
  %3 = load ptr, ptr %2, align 8
  %4 = call noundef i64 @_ZN6insn_t1xEii(ptr noundef nonnull align 8 dereferenceable(8) %3, i32 noundef 7, i32 noundef 5)
  ret i64 %4
}

; Function Attrs: mustprogress nounwind uwtable
define linkonce_odr noundef i64 @_ZN6insn_t3rs2Ev(ptr noundef nonnull align 8 dereferenceable(8) %0) #6 comdat align 2 {
  %2 = alloca ptr, align 8
  store ptr %0, ptr %2, align 8, !tbaa !13
  %3 = load ptr, ptr %2, align 8
  %4 = call noundef i64 @_ZN6insn_t1xEii(ptr noundef nonnull align 8 dereferenceable(8) %3, i32 noundef 20, i32 noundef 5)
  ret i64 %4
}

; Function Attrs: mustprogress nounwind uwtable
define linkonce_odr noundef nonnull align 8 dereferenceable(8) ptr @_ZNK9regfile_tImLm32ELb1EEixEm(ptr noundef nonnull align 8 dereferenceable(256) %0, i64 noundef %1) #6 comdat align 2 {
  %3 = alloca ptr, align 8
  %4 = alloca i64, align 8
  store ptr %0, ptr %3, align 8, !tbaa !11
  store i64 %1, ptr %4, align 8, !tbaa !8
  %5 = load ptr, ptr %3, align 8
  %6 = getelementptr inbounds nuw %class.regfile_t, ptr %5, i32 0, i32 0
  %7 = load i64, ptr %4, align 8, !tbaa !8
  %8 = getelementptr inbounds nuw [32 x i64], ptr %6, i64 0, i64 %7
  ret ptr %8
}

; Function Attrs: mustprogress uwtable
define linkonce_odr noundef i64 @_ZN6insn_t3rs1Ev(ptr noundef nonnull align 8 dereferenceable(8) %0) #4 comdat align 2 {
  %2 = alloca ptr, align 8
  store ptr %0, ptr %2, align 8, !tbaa !13
  %3 = load ptr, ptr %2, align 8
  %4 = call noundef i64 @_ZN6insn_t1xEii(ptr noundef nonnull align 8 dereferenceable(8) %3, i32 noundef 15, i32 noundef 5)
  ret i64 %4
}

; Function Attrs: mustprogress nounwind uwtable
define linkonce_odr noundef ptr @_ZN11processor_t9get_stateEv(ptr noundef nonnull align 8 dereferenceable(266872) %0) #6 comdat align 2 {
  %2 = alloca ptr, align 8
  store ptr %0, ptr %2, align 8, !tbaa !3
  %3 = load ptr, ptr %2, align 8
  %4 = getelementptr inbounds nuw %class.processor_t, ptr %3, i32 0, i32 9
  ret ptr %4
}

; Function Attrs: mustprogress uwtable
define noundef i64 @_Z16logged_rv32i_sllP11processor_t6insn_tm(ptr noundef %0, i64 %1, i64 noundef %2) #4 {
  %4 = alloca %class.insn_t, align 8
  %5 = alloca ptr, align 8
  %6 = alloca i64, align 8
  %7 = alloca i64, align 8
  %8 = alloca i64, align 8
  %9 = alloca %struct.float128_t, align 8
  %10 = alloca i64, align 8
  %11 = alloca %class.insn_t, align 8
  %12 = getelementptr inbounds nuw %class.insn_t, ptr %4, i32 0, i32 0
  store i64 %1, ptr %12, align 8
  store ptr %0, ptr %5, align 8, !tbaa !3
  store i64 %2, ptr %6, align 8, !tbaa !8
  call void @llvm.lifetime.start.p0(i64 8, ptr %7) #3
  %13 = load i64, ptr %6, align 8, !tbaa !8
  %14 = add i64 %13, 4
  %15 = shl i64 %14, 32
  %16 = ashr i64 %15, 32
  store i64 %16, ptr %7, align 8, !tbaa !8
  call void @llvm.lifetime.start.p0(i64 8, ptr %8) #3
  %17 = load ptr, ptr %5, align 8, !tbaa !3
  %18 = call noundef ptr @_ZN11processor_t9get_stateEv(ptr noundef nonnull align 8 dereferenceable(266872) %17)
  %19 = getelementptr inbounds nuw %struct.state_t, ptr %18, i32 0, i32 1
  %20 = call noundef i64 @_ZN6insn_t3rs1Ev(ptr noundef nonnull align 8 dereferenceable(8) %4)
  %21 = call noundef nonnull align 8 dereferenceable(8) ptr @_ZNK9regfile_tImLm32ELb1EEixEm(ptr noundef nonnull align 8 dereferenceable(256) %19, i64 noundef %20)
  %22 = load i64, ptr %21, align 8, !tbaa !8
  %23 = load ptr, ptr %5, align 8, !tbaa !3
  %24 = call noundef ptr @_ZN11processor_t9get_stateEv(ptr noundef nonnull align 8 dereferenceable(266872) %23)
  %25 = getelementptr inbounds nuw %struct.state_t, ptr %24, i32 0, i32 1
  %26 = call noundef i64 @_ZN6insn_t3rs2Ev(ptr noundef nonnull align 8 dereferenceable(8) %4)
  %27 = call noundef nonnull align 8 dereferenceable(8) ptr @_ZNK9regfile_tImLm32ELb1EEixEm(ptr noundef nonnull align 8 dereferenceable(256) %25, i64 noundef %26)
  %28 = load i64, ptr %27, align 8, !tbaa !8
  %29 = and i64 %28, 31
  %30 = shl i64 %22, %29
  %31 = shl i64 %30, 32
  %32 = ashr i64 %31, 32
  store i64 %32, ptr %8, align 8, !tbaa !8
  call void @llvm.lifetime.start.p0(i64 16, ptr %9) #3
  %33 = getelementptr inbounds nuw %struct.float128_t, ptr %9, i32 0, i32 0
  %34 = load i64, ptr %8, align 8, !tbaa !8
  store i64 %34, ptr %33, align 8, !tbaa !8
  %35 = getelementptr inbounds i64, ptr %33, i64 1
  store i64 0, ptr %35, align 8, !tbaa !8
  %36 = load ptr, ptr %5, align 8, !tbaa !3
  %37 = call noundef ptr @_ZN11processor_t9get_stateEv(ptr noundef nonnull align 8 dereferenceable(266872) %36)
  %38 = getelementptr inbounds nuw %struct.state_t, ptr %37, i32 0, i32 86
  call void @llvm.lifetime.start.p0(i64 8, ptr %10) #3
  %39 = call noundef i64 @_ZN6insn_t2rdEv(ptr noundef nonnull align 8 dereferenceable(8) %4)
  %40 = shl i64 %39, 4
  store i64 %40, ptr %10, align 8, !tbaa !8
  %41 = call noundef nonnull align 8 dereferenceable(16) ptr @_ZNSt3mapIm10float128_tSt4lessImESaISt4pairIKmS0_EEEixEOm(ptr noundef nonnull align 8 dereferenceable(48) %38, ptr noundef nonnull align 8 dereferenceable(8) %10)
  call void @llvm.memcpy.p0.p0.i64(ptr align 8 %41, ptr align 8 %9, i64 16, i1 false), !tbaa.struct !15
  call void @llvm.lifetime.end.p0(i64 8, ptr %10) #3
  call void @llvm.lifetime.end.p0(i64 16, ptr %9) #3
  %42 = load ptr, ptr %5, align 8, !tbaa !3
  %43 = call noundef ptr @_ZN11processor_t9get_stateEv(ptr noundef nonnull align 8 dereferenceable(266872) %42)
  %44 = getelementptr inbounds nuw %struct.state_t, ptr %43, i32 0, i32 1
  %45 = call noundef i64 @_ZN6insn_t2rdEv(ptr noundef nonnull align 8 dereferenceable(8) %4)
  %46 = load i64, ptr %8, align 8, !tbaa !8
  call void @_ZN9regfile_tImLm32ELb1EE5writeEmm(ptr noundef nonnull align 8 dereferenceable(256) %44, i64 noundef %45, i64 noundef %46)
  call void @llvm.lifetime.end.p0(i64 8, ptr %8) #3
  %47 = load ptr, ptr %5, align 8, !tbaa !3
  call void @llvm.memcpy.p0.p0.i64(ptr align 8 %11, ptr align 8 %4, i64 8, i1 false), !tbaa.struct !10
  %48 = getelementptr inbounds nuw %class.insn_t, ptr %11, i32 0, i32 0
  %49 = load i64, ptr %48, align 8
  call void @_ZL12trace_opcodeP11processor_tm6insn_t(ptr noundef %47, i64 noundef 4147, i64 %49)
  %50 = load i64, ptr %7, align 8, !tbaa !8
  call void @llvm.lifetime.end.p0(i64 8, ptr %7) #3
  ret i64 %50
}