; Function Attrs: mustprogress uwtable
define noundef range(i64 -2147483648, 2147483648) i64 @_Z16logged_rv32i_sllP11processor_t6insn_tm(ptr noundef %0, i64 %1, i64 noundef %2) local_unnamed_addr #6 {
  %4 = alloca i64, align 8
  %5 = getelementptr inbounds nuw i8, ptr %0, i64 256
  %6 = lshr i64 %1, 15
  %7 = and i64 %6, 31
  %8 = getelementptr inbounds nuw [32 x i64], ptr %5, i64 0, i64 %7
  %9 = load i64, ptr %8, align 8, !tbaa !3
  %10 = lshr i64 %1, 20
  %11 = and i64 %10, 31
  %12 = getelementptr inbounds nuw [32 x i64], ptr %5, i64 0, i64 %11
  %13 = load i64, ptr %12, align 8, !tbaa !3
  %14 = and i64 %13, 31
  %15 = shl i64 %9, %14
  %16 = shl i64 %15, 32
  %17 = ashr exact i64 %16, 32
  %18 = getelementptr inbounds nuw i8, ptr %0, i64 3840
  call void @llvm.lifetime.start.p0(i64 8, ptr nonnull %4) #15
  %19 = lshr i64 %1, 7
  %20 = and i64 %19, 31
  %21 = shl nuw nsw i64 %20, 4
  store i64 %21, ptr %4, align 8, !tbaa !3
  %22 = call noundef nonnull align 8 dereferenceable(16) ptr @_ZNSt3mapIm10float128_tSt4lessImESaISt4pairIKmS0_EEEixEOm(ptr noundef nonnull align 8 dereferenceable(48) %18, ptr noundef nonnull align 8 dereferenceable(8) %4)
  store i64 %17, ptr %22, align 8
  %.sroa.4.0..sroa_idx = getelementptr inbounds nuw i8, ptr %22, i64 8
  store i64 0, ptr %.sroa.4.0..sroa_idx, align 8, !tbaa !7
  call void @llvm.lifetime.end.p0(i64 8, ptr nonnull %4) #15
  %.not.i = icmp eq i64 %20, 0
  br i1 %.not.i, label %_ZN9regfile_tImLm32ELb1EE5writeEmm.exit, label %23

23:                                               ; preds = %3
  %24 = getelementptr inbounds nuw [32 x i64], ptr %5, i64 0, i64 %20
  store i64 %17, ptr %24, align 8, !tbaa !3
  br label %_ZN9regfile_tImLm32ELb1EE5writeEmm.exit

_ZN9regfile_tImLm32ELb1EE5writeEmm.exit:          ; preds = %3, %23
  %25 = shl i64 %2, 32
  %26 = add i64 %25, 17179869184
  %27 = ashr exact i64 %26, 32
  ret i64 %27
}